target datalayout = "e-m:e-p270:32:32-p271:32:32-p272:64:64-i64:64-i128:128-f80:128-n8:16:32:64-S128"
target triple = "x86_64-pc-linux-gnu"

%"class.cv::detail::tracking::online_boosting::EstimatedGaussDistribution" = type { ptr, float, float, float, float, float, float }

; Function Attrs: mustprogress nounwind uwtable
define hidden void @_ZN2cv6detail8tracking15online_boosting26EstimatedGaussDistributionC2Ev(ptr noundef nonnull align 8 dereferenceable(32) %0) unnamed_addr #5 align 2 {
  %2 = alloca ptr, align 8
  store ptr %0, ptr %2, align 8, !tbaa !157
  %3 = load ptr, ptr %2, align 8
  store ptr getelementptr inbounds inrange(-16, 16) ({ [4 x ptr] }, ptr @_ZTVN2cv6detail8tracking15online_boosting26EstimatedGaussDistributionE, i32 0, i32 0, i32 2), ptr %3, align 8, !tbaa !14
  %4 = getelementptr inbounds nuw %"class.cv::detail::tracking::online_boosting::EstimatedGaussDistribution", ptr %3, i32 0, i32 1
  store float 0.000000e+00, ptr %4, align 8, !tbaa !159
  %5 = getelementptr inbounds nuw %"class.cv::detail::tracking::online_boosting::EstimatedGaussDistribution", ptr %3, i32 0, i32 2
  store float 1.000000e+00, ptr %5, align 4, !tbaa !161
  %6 = getelementptr inbounds nuw %"class.cv::detail::tracking::online_boosting::EstimatedGaussDistribution", ptr %3, i32 0, i32 3
  store float 1.000000e+03, ptr %6, align 8, !tbaa !162
  %7 = getelementptr inbounds nuw %"class.cv::detail::tracking::online_boosting::EstimatedGaussDistribution", ptr %3, i32 0, i32 5
  store float 0x3F847AE140000000, ptr %7, align 8, !tbaa !163
  %8 = getelementptr inbounds nuw %"class.cv::detail::tracking::online_boosting::EstimatedGaussDistribution", ptr %3, i32 0, i32 4
  store float 1.000000e+03, ptr %8, align 4, !tbaa !164
  %9 = getelementptr inbounds nuw %"class.cv::detail::tracking::online_boosting::EstimatedGaussDistribution", ptr %3, i32 0, i32 6
  store float 0x3F847AE140000000, ptr %9, align 4, !tbaa !165
  ret void
}