; Function Attrs: mustprogress nofree norecurse nosync nounwind willreturn memory(argmem: write) uwtable
define hidden void @_ZN2cv6detail8tracking15online_boosting26EstimatedGaussDistributionC2Ev(ptr noundef nonnull writeonly align 8 captures(none) dereferenceable(32) initializes((0, 32)) %0) unnamed_addr #16 align 2 {
  store ptr getelementptr inbounds nuw inrange(-16, 16) (i8, ptr @_ZTVN2cv6detail8tracking15online_boosting26EstimatedGaussDistributionE, i64 16), ptr %0, align 8, !tbaa !3
  %2 = getelementptr inbounds nuw i8, ptr %0, i64 8
  store float 0.000000e+00, ptr %2, align 8, !tbaa !127
  %3 = getelementptr inbounds nuw i8, ptr %0, i64 12
  store float 1.000000e+00, ptr %3, align 4, !tbaa !130
  %4 = getelementptr inbounds nuw i8, ptr %0, i64 16
  store float 1.000000e+03, ptr %4, align 8, !tbaa !124
  %5 = getelementptr inbounds nuw i8, ptr %0, i64 24
  store float 0x3F847AE140000000, ptr %5, align 8, !tbaa !126
  %6 = getelementptr inbounds nuw i8, ptr %0, i64 20
  store float 1.000000e+03, ptr %6, align 4, !tbaa !128
  %7 = getelementptr inbounds nuw i8, ptr %0, i64 28
  store float 0x3F847AE140000000, ptr %7, align 4, !tbaa !129
  ret void
}